target datalayout = "e-m:e-p270:32:32-p271:32:32-p272:64:64-i64:64-i128:128-f80:128-n8:16:32:64-S128"
target triple = "x86_64-pc-linux-gnu"

%struct.rb_code_location_struct = type { %struct.rb_code_position_struct, %struct.rb_code_position_struct }
%struct.rb_code_position_struct = type { i32, i32 }
%struct.rb_iseq_struct = type { i64, i64, ptr, %union.anon.13 }
%union.anon.13 = type { %struct.anon.14 }
%struct.anon.14 = type { i64, i32 }
%struct.rb_iseq_constant_body = type { i32, i32, ptr, %struct.anon.16, %struct.rb_iseq_location_struct, %struct.iseq_insn_info, ptr, ptr, ptr, ptr, ptr, ptr, %struct.anon.17, i32, i32, i32, i32, i32, i32, i32, i32, i8, %union.anon.18, ptr, ptr, ptr, i64, ptr, i64, ptr, i64 }
%struct.anon.16 = type { %struct.anon, i32, i32, i32, i32, i32, i32, i32, ptr, ptr }
%struct.anon = type { i16, [2 x i8] }
%struct.rb_iseq_location_struct = type { i64, i64, i64, i32, i32, %struct.rb_code_location_struct }
%struct.iseq_insn_info = type { ptr, ptr, i32, ptr }
%struct.anon.17 = type { i64, i64, i64, i64, ptr }
%union.anon.18 = type { ptr }
%struct.succ_index_table = type { [6 x i64], [0 x %struct.succ_dict_block] }
%struct.succ_dict_block = type { i32, i64, [8 x i64] }
%struct.iseq_insn_info_entry = type { i32, i32, i32 }

; Function Attrs: inlinehint nounwind sspstrong uwtable
define internal i32 @rb_popcount64(i64 noundef %0) #5 {
  %2 = alloca i64, align 8
  store i64 %0, ptr %2, align 8, !tbaa !17
  %3 = load i64, ptr %2, align 8, !tbaa !17
  %4 = call i64 @llvm.ctpop.i64(i64 %3)
  %5 = trunc i64 %4 to i32
  ret i32 %5
}

; Function Attrs: nounwind sspstrong uwtable
define internal i32 @succ_index_lookup(ptr noundef %0, i32 noundef %1) #0 {
  %3 = alloca i32, align 4
  %4 = alloca ptr, align 8
  %5 = alloca i32, align 4
  %6 = alloca i32, align 4
  %7 = alloca i32, align 4
  %8 = alloca i32, align 4
  %9 = alloca ptr, align 8
  %10 = alloca i32, align 4
  %11 = alloca i32, align 4
  %12 = alloca i32, align 4
  %13 = alloca i32, align 4
  store ptr %0, ptr %4, align 8, !tbaa !140
  store i32 %1, ptr %5, align 4, !tbaa !56
  %14 = load i32, ptr %5, align 4, !tbaa !56
  %15 = icmp slt i32 %14, 54
  br i1 %15, label %16, label %33

16:                                               ; preds = %2
  call void @llvm.lifetime.start.p0(i64 4, ptr %6) #24
  %17 = load i32, ptr %5, align 4, !tbaa !56
  %18 = sdiv i32 %17, 9
  store i32 %18, ptr %6, align 4, !tbaa !56
  call void @llvm.lifetime.start.p0(i64 4, ptr %7) #24
  %19 = load i32, ptr %5, align 4, !tbaa !56
  %20 = srem i32 %19, 9
  store i32 %20, ptr %7, align 4, !tbaa !56
  %21 = load ptr, ptr %4, align 8, !tbaa !140
  %22 = getelementptr inbounds nuw %struct.succ_index_table, ptr %21, i32 0, i32 0
  %23 = load i32, ptr %6, align 4, !tbaa !56
  %24 = sext i32 %23 to i64
  %25 = getelementptr [6 x i64], ptr %22, i64 0, i64 %24
  %26 = load i64, ptr %25, align 8, !tbaa !17
  %27 = load i32, ptr %7, align 4, !tbaa !56
  %28 = mul i32 %27, 7
  %29 = zext i32 %28 to i64
  %30 = lshr i64 %26, %29
  %31 = trunc i64 %30 to i32
  %32 = and i32 %31, 127
  store i32 %32, ptr %3, align 4
  call void @llvm.lifetime.end.p0(i64 4, ptr %7) #24
  call void @llvm.lifetime.end.p0(i64 4, ptr %6) #24
  br label %82

33:                                               ; preds = %2
  call void @llvm.lifetime.start.p0(i64 4, ptr %8) #24
  %34 = load i32, ptr %5, align 4, !tbaa !56
  %35 = sub i32 %34, 54
  %36 = sdiv i32 %35, 512
  store i32 %36, ptr %8, align 4, !tbaa !56
  call void @llvm.lifetime.start.p0(i64 8, ptr %9) #24
  %37 = load ptr, ptr %4, align 8, !tbaa !140
  %38 = getelementptr inbounds nuw %struct.succ_index_table, ptr %37, i32 0, i32 1
  %39 = load i32, ptr %8, align 4, !tbaa !56
  %40 = sext i32 %39 to i64
  %41 = getelementptr [0 x %struct.succ_dict_block], ptr %38, i64 0, i64 %40
  store ptr %41, ptr %9, align 8, !tbaa !143
  call void @llvm.lifetime.start.p0(i64 4, ptr %10) #24
  %42 = load i32, ptr %5, align 4, !tbaa !56
  %43 = sub i32 %42, 54
  %44 = srem i32 %43, 512
  store i32 %44, ptr %10, align 4, !tbaa !56
  call void @llvm.lifetime.start.p0(i64 4, ptr %11) #24
  %45 = load i32, ptr %10, align 4, !tbaa !56
  %46 = sdiv i32 %45, 64
  store i32 %46, ptr %11, align 4, !tbaa !56
  call void @llvm.lifetime.start.p0(i64 4, ptr %12) #24
  %47 = load i32, ptr %11, align 4, !tbaa !56
  %48 = icmp eq i32 %47, 0
  br i1 %48, label %49, label %50

49:                                               ; preds = %33
  br label %61

50:                                               ; preds = %33
  %51 = load ptr, ptr %9, align 8, !tbaa !143
  %52 = getelementptr inbounds nuw %struct.succ_dict_block, ptr %51, i32 0, i32 1
  %53 = load i64, ptr %52, align 8, !tbaa !147
  %54 = load i32, ptr %11, align 4, !tbaa !56
  %55 = sub i32 %54, 1
  %56 = mul i32 %55, 9
  %57 = zext i32 %56 to i64
  %58 = lshr i64 %53, %57
  %59 = trunc i64 %58 to i32
  %60 = and i32 %59, 511
  br label %61

61:                                               ; preds = %50, %49
  %62 = phi i32 [ 0, %49 ], [ %60, %50 ]
  store i32 %62, ptr %12, align 4, !tbaa !56
  call void @llvm.lifetime.start.p0(i64 4, ptr %13) #24
  %63 = load ptr, ptr %9, align 8, !tbaa !143
  %64 = getelementptr inbounds nuw %struct.succ_dict_block, ptr %63, i32 0, i32 2
  %65 = load i32, ptr %11, align 4, !tbaa !56
  %66 = sext i32 %65 to i64
  %67 = getelementptr [8 x i64], ptr %64, i64 0, i64 %66
  %68 = load i64, ptr %67, align 8, !tbaa !17
  %69 = load i32, ptr %10, align 4, !tbaa !56
  %70 = srem i32 %69, 64
  %71 = sub i32 63, %70
  %72 = zext i32 %71 to i64
  %73 = shl i64 %68, %72
  %74 = call i32 @rb_popcount64(i64 noundef %73)
  store i32 %74, ptr %13, align 4, !tbaa !56
  %75 = load ptr, ptr %9, align 8, !tbaa !143
  %76 = getelementptr inbounds nuw %struct.succ_dict_block, ptr %75, i32 0, i32 0
  %77 = load i32, ptr %76, align 8, !tbaa !145
  %78 = load i32, ptr %12, align 4, !tbaa !56
  %79 = add i32 %77, %78
  %80 = load i32, ptr %13, align 4, !tbaa !56
  %81 = add i32 %79, %80
  store i32 %81, ptr %3, align 4
  call void @llvm.lifetime.end.p0(i64 4, ptr %13) #24
  call void @llvm.lifetime.end.p0(i64 4, ptr %12) #24
  call void @llvm.lifetime.end.p0(i64 4, ptr %11) #24
  call void @llvm.lifetime.end.p0(i64 4, ptr %10) #24
  call void @llvm.lifetime.end.p0(i64 8, ptr %9) #24
  call void @llvm.lifetime.end.p0(i64 4, ptr %8) #24
  br label %82

82:                                               ; preds = %61, %16
  %83 = load i32, ptr %3, align 4
  ret i32 %83
}

; Function Attrs: nounwind sspstrong uwtable
define internal ptr @get_insn_info_succinct_bitvector(ptr noundef %0, i64 noundef %1) #0 {
  %3 = alloca ptr, align 8
  %4 = alloca ptr, align 8
  %5 = alloca i64, align 8
  %6 = alloca ptr, align 8
  %7 = alloca i64, align 8
  %8 = alloca ptr, align 8
  %9 = alloca i32, align 4
  %10 = alloca i32, align 4
  %11 = alloca i32, align 4
  store ptr %0, ptr %4, align 8, !tbaa !7
  store i64 %1, ptr %5, align 8, !tbaa !17
  call void @llvm.lifetime.start.p0(i64 8, ptr %6) #24
  %12 = load ptr, ptr %4, align 8, !tbaa !7
  %13 = getelementptr inbounds nuw %struct.rb_iseq_struct, ptr %12, i32 0, i32 2
  %14 = load ptr, ptr %13, align 8, !tbaa !12
  store ptr %14, ptr %6, align 8, !tbaa !16
  call void @llvm.lifetime.start.p0(i64 8, ptr %7) #24
  %15 = load ptr, ptr %6, align 8, !tbaa !16
  %16 = getelementptr inbounds nuw %struct.rb_iseq_constant_body, ptr %15, i32 0, i32 5
  %17 = getelementptr inbounds nuw %struct.iseq_insn_info, ptr %16, i32 0, i32 2
  %18 = load i32, ptr %17, align 8, !tbaa !130
  %19 = zext i32 %18 to i64
  store i64 %19, ptr %7, align 8, !tbaa !17
  call void @llvm.lifetime.start.p0(i64 8, ptr %8) #24
  %20 = load ptr, ptr %6, align 8, !tbaa !16
  %21 = getelementptr inbounds nuw %struct.rb_iseq_constant_body, ptr %20, i32 0, i32 5
  %22 = getelementptr inbounds nuw %struct.iseq_insn_info, ptr %21, i32 0, i32 0
  %23 = load ptr, ptr %22, align 8, !tbaa !38
  store ptr %23, ptr %8, align 8, !tbaa !268
  call void @llvm.lifetime.start.p0(i64 4, ptr %9) #24
  store i32 0, ptr %9, align 4, !tbaa !56
  %24 = load i64, ptr %7, align 8, !tbaa !17
  %25 = icmp eq i64 %24, 0
  br i1 %25, label %26, label %27

26:                                               ; preds = %2
  store ptr null, ptr %3, align 8
  store i32 1, ptr %10, align 4
  br label %46

27:                                               ; preds = %2
  %28 = load i64, ptr %7, align 8, !tbaa !17
  %29 = icmp eq i64 %28, 1
  br i1 %29, label %30, label %33

30:                                               ; preds = %27
  %31 = load ptr, ptr %8, align 8, !tbaa !268
  %32 = getelementptr %struct.iseq_insn_info_entry, ptr %31, i64 0
  store ptr %32, ptr %3, align 8
  store i32 1, ptr %10, align 4
  br label %46

33:                                               ; preds = %27
  call void @llvm.lifetime.start.p0(i64 4, ptr %11) #24
  %34 = load ptr, ptr %6, align 8, !tbaa !16
  %35 = getelementptr inbounds nuw %struct.rb_iseq_constant_body, ptr %34, i32 0, i32 5
  %36 = getelementptr inbounds nuw %struct.iseq_insn_info, ptr %35, i32 0, i32 3
  %37 = load ptr, ptr %36, align 8, !tbaa !40
  %38 = load i64, ptr %5, align 8, !tbaa !17
  %39 = trunc i64 %38 to i32
  %40 = call i32 @succ_index_lookup(ptr noundef %37, i32 noundef %39)
  store i32 %40, ptr %11, align 4, !tbaa !56
  %41 = load ptr, ptr %8, align 8, !tbaa !268
  %42 = load i32, ptr %11, align 4, !tbaa !56
  %43 = sub i32 %42, 1
  %44 = sext i32 %43 to i64
  %45 = getelementptr %struct.iseq_insn_info_entry, ptr %41, i64 %44
  store ptr %45, ptr %3, align 8
  store i32 1, ptr %10, align 4
  call void @llvm.lifetime.end.p0(i64 4, ptr %11) #24
  br label %46

46:                                               ; preds = %33, %30, %26
  call void @llvm.lifetime.end.p0(i64 4, ptr %9) #24
  call void @llvm.lifetime.end.p0(i64 8, ptr %8) #24
  call void @llvm.lifetime.end.p0(i64 8, ptr %7) #24
  call void @llvm.lifetime.end.p0(i64 8, ptr %6) #24
  %47 = load ptr, ptr %3, align 8
  ret ptr %47
}

; Function Attrs: nounwind sspstrong uwtable
define internal ptr @get_insn_info(ptr noundef %0, i64 noundef %1) #0 {
  %3 = alloca ptr, align 8
  %4 = alloca i64, align 8
  store ptr %0, ptr %3, align 8, !tbaa !7
  store i64 %1, ptr %4, align 8, !tbaa !17
  %5 = load ptr, ptr %3, align 8, !tbaa !7
  %6 = load i64, ptr %4, align 8, !tbaa !17
  %7 = call ptr @get_insn_info_succinct_bitvector(ptr noundef %5, i64 noundef %6)
  ret ptr %7
}

; Function Attrs: nounwind sspstrong uwtable
define dso_local i32 @rb_iseq_line_no(ptr noundef %0, i64 noundef %1) #0 {
  %3 = alloca i32, align 4
  %4 = alloca ptr, align 8
  %5 = alloca i64, align 8
  %6 = alloca ptr, align 8
  %7 = alloca i32, align 4
  store ptr %0, ptr %4, align 8, !tbaa !7
  store i64 %1, ptr %5, align 8, !tbaa !17
  call void @llvm.lifetime.start.p0(i64 8, ptr %6) #24
  %8 = load ptr, ptr %4, align 8, !tbaa !7
  %9 = load i64, ptr %5, align 8, !tbaa !17
  %10 = call ptr @get_insn_info(ptr noundef %8, i64 noundef %9)
  store ptr %10, ptr %6, align 8, !tbaa !268
  %11 = load ptr, ptr %6, align 8, !tbaa !268
  %12 = icmp ne ptr %11, null
  br i1 %12, label %13, label %17

13:                                               ; preds = %2
  %14 = load ptr, ptr %6, align 8, !tbaa !268
  %15 = getelementptr inbounds nuw %struct.iseq_insn_info_entry, ptr %14, i32 0, i32 0
  %16 = load i32, ptr %15, align 4, !tbaa !269
  store i32 %16, ptr %3, align 4
  store i32 1, ptr %7, align 4
  br label %18

17:                                               ; preds = %2
  store i32 0, ptr %3, align 4
  store i32 1, ptr %7, align 4
  br label %18

18:                                               ; preds = %17, %13
  call void @llvm.lifetime.end.p0(i64 8, ptr %6) #24
  %19 = load i32, ptr %3, align 4
  ret i32 %19
}